; Function Attrs: nounwind uwtable
define ptr @l_Lean_Elab_WF_solveDecreasingGoals(ptr noundef %0, ptr noundef %1, ptr noundef %2, ptr noundef %3, ptr noundef %4, ptr noundef %5, ptr noundef %6, ptr noundef %7, ptr noundef %8) local_unnamed_addr #1 {
  tail call void @lean_inc_heartbeat() #5
  %10 = tail call noalias ptr @mi_malloc_small(i64 noundef 56) #5
  %11 = icmp eq ptr %10, null
  br i1 %11, label %12, label %lean_alloc_closure.exit

12:                                               ; preds = %9
  tail call void @lean_internal_panic_out_of_memory() #6
  unreachable

lean_alloc_closure.exit:                          ; preds = %9
  %13 = getelementptr inbounds nuw i8, ptr %10, i64 4
  store i32 1, ptr %10, align 4, !tbaa !8
  store i32 -184549320, ptr %13, align 4
  %14 = getelementptr inbounds nuw i8, ptr %10, i64 8
  store ptr @l_Lean_Elab_WF_solveDecreasingGoals___lambda__1___boxed, ptr %14, align 8, !tbaa !12
  %15 = getelementptr inbounds nuw i8, ptr %10, i64 16
  store i16 9, ptr %15, align 8, !tbaa !14
  %16 = getelementptr inbounds nuw i8, ptr %10, i64 18
  store i16 4, ptr %16, align 2, !tbaa !14
  %17 = getelementptr inbounds nuw i8, ptr %10, i64 24
  store ptr %3, ptr %17, align 8, !tbaa !12
  %18 = getelementptr inbounds nuw i8, ptr %10, i64 32
  store ptr %2, ptr %18, align 8, !tbaa !12
  %19 = getelementptr inbounds nuw i8, ptr %10, i64 40
  store ptr %1, ptr %19, align 8, !tbaa !12
  %20 = getelementptr inbounds nuw i8, ptr %10, i64 48
  store ptr %0, ptr %20, align 8, !tbaa !12
  %21 = tail call ptr @l_Lean_withoutExporting___at_Lean_Elab_WF_solveDecreasingGoals___spec__4(ptr noundef nonnull %10, ptr noundef %4, ptr noundef %5, ptr noundef %6, ptr noundef %7, ptr noundef %8)
  ret ptr %21
}